; Function Attrs: inlinehint nounwind uwtable
define internal range(i32 0, 2) i32 @float_compactlong_guard(ptr noundef %0, ptr noundef readonly captures(none) %1) #7 {
  %3 = getelementptr i8, ptr %0, i64 8
  %.val5 = load ptr, ptr %3, align 8, !tbaa !9
  %.not = icmp eq ptr %.val5, @PyFloat_Type
  br i1 %.not, label %4, label %13

4:                                                ; preds = %2
  %5 = tail call double @PyFloat_AsDouble(ptr noundef nonnull %0) #9
  %6 = fcmp uno double %5, 0.000000e+00
  br i1 %6, label %13, label %7

7:                                                ; preds = %4
  %8 = getelementptr i8, ptr %1, i64 8
  %.val = load ptr, ptr %8, align 8, !tbaa !9
  %.not7 = icmp eq ptr %.val, @PyLong_Type
  br i1 %.not7, label %9, label %13

9:                                                ; preds = %7
  %10 = getelementptr i8, ptr %1, i64 16
  %.val6 = load i64, ptr %10, align 8, !tbaa !153
  %11 = icmp ult i64 %.val6, 16
  %12 = zext i1 %11 to i32
  br label %13

13:                                               ; preds = %9, %7, %4, %2
  %14 = phi i32 [ 0, %7 ], [ 0, %4 ], [ 0, %2 ], [ %12, %9 ]
  ret i32 %14
}